(lp1
(lp2
S'hike'
p3
a(lp4
(lp5
I0
aI1
aI2
aI3
aI4
aI5
aI6
aI10
aI13
aa(lp6
I7
aI8
aI9
aI11
aI12
aI14
aI15
aI16
aI17
aI18
aI19
aI20
aa(lp7
I33
aI34
aI35
aI36
aI37
aI38
aI39
aI40
aI41
aI42
aI43
aI44
aI45
aI46
aI47
aa(lp8
I21
aI22
aI23
aI24
aI25
aI26
aI27
aI28
aI29
aI30
aI31
aI32
aa(lp9
I48
aI49
aI50
aI51
aI52
aI53
aI54
aI55
aI56
aI57
aI58
aI59
aI60
aI61
aI62
aI63
aI64
aI65
aI66
aI67
aI68
aI69
aI70
aI71
aI72
aI73
aI74
aI75
aI76
aI77
aI78
aI79
aaa(lp10
I1
aI17
aI37
aI28
aI60
aaa(lp11
S'mallard-fly'
p12
a(lp13
(lp14
I27
aI28
aI29
aI30
aI31
aI32
aI33
aI34
aI35
aI36
aI45
aa(lp15
I0
aI1
aI2
aI3
aI4
aI5
aI6
aI7
aI8
aI9
aI10
aI11
aI12
aI13
aI14
aI15
aI16
aI17
aI18
aI19
aI20
aI21
aI22
aI23
aI24
aI25
aI26
aa(lp16
I37
aI38
aI39
aI40
aI41
aI42
aI43
aI44
aI46
aI47
aI48
aI49
aI50
aI51
aa(lp17
I52
aI53
aI54
aI55
aI56
aI57
aI58
aa(lp18
I59
aI60
aI61
aI62
aI63
aI64
aI65
aI66
aI67
aI68
aI69
aaa(lp19
I32
aI16
aI42
aI55
aI63
aaa(lp20
S'dance-jump'
p21
a(lp22
(lp23
I6
aI7
aI8
aI9
aI10
aa(lp24
I0
aI1
aI2
aI3
aI4
aI5
aa(lp25
I23
aI24
aI25
aI26
aI27
aI28
aI29
aI30
aI31
aI32
aI33
aI34
aI35
aI36
aa(lp26
I11
aI12
aI13
aI14
aI15
aI16
aI17
aI18
aI19
aI20
aI21
aI22
aa(lp27
I37
aI38
aI39
aI40
aI41
aI42
aI43
aI44
aI45
aI46
aI47
aI48
aI49
aI50
aI51
aI52
aI53
aI54
aI55
aI56
aI57
aI58
aI59
aaa(lp28
I8
aI4
aI31
aI15
aI53
aaa(lp29
S'mallard-water'
p30
a(lp31
(lp32
I58
aI59
aI60
aI61
aI62
aI63
aI67
aI68
aI69
aI70
aI71
aI72
aI73
aI74
aI75
aa(lp33
I36
aI37
aI38
aI39
aI40
aI41
aI42
aI43
aI44
aI45
aI46
aI47
aI48
aI49
aI50
aI51
aI52
aI53
aI54
aI55
aI56
aI57
aI64
aI65
aI66
aa(lp34
I16
aI17
aI18
aI19
aI20
aI21
aI22
aI23
aI24
aI25
aI26
aI27
aI28
aI29
aI30
aI31
aI32
aI33
aI34
aI35
aa(lp35
I0
aI1
aI2
aI3
aI4
aI5
aI6
aI7
aI8
aI9
aI10
aI11
aI12
aI13
aI14
aI15
aa(lp36
I76
aI77
aI78
aI79
aaa(lp37
I69
aI48
aI26
aI7
aI77
aaa(lp38
S'cows'
p39
a(lp40
(lp41
I25
aI31
aI32
aI33
aI34
aI35
aI36
aI37
aI38
aI39
aI42
aI43
aI44
aI45
aI54
aI56
aI57
aI61
aI62
aI70
aI71
aI72
aI79
aI80
aI81
aI82
aI83
aa(lp42
I0
aI1
aI2
aI4
aI5
aI6
aI7
aI8
aI9
aI10
aI11
aI12
aI13
aI14
aI17
aI18
aI50
aa(lp43
I3
aI15
aI16
aI19
aI20
aI21
aI22
aI23
aI24
aI26
aI27
aI28
aI29
aI30
aI40
aI41
aI46
aa(lp44
I47
aI48
aI49
aI51
aI52
aI53
aI55
aI58
aI59
aI60
aI63
aI64
aI65
aI66
aI67
aI68
aI69
aI73
aI74
aI75
aI76
aI77
aI98
aI101
aa(lp45
I78
aI84
aI85
aI86
aI87
aI88
aI89
aI90
aI91
aI92
aI93
aI94
aI95
aI96
aI97
aI99
aI100
aI102
aI103
aaa(lp46
I42
aI14
aI23
aI66
aI88
aaa(lp47
S'dance-twirl'
p48
a(lp49
(lp50
I17
aI18
aI19
aI20
aI21
aI22
aI23
aI24
aI25
aI26
aI27
aI28
aI29
aI30
aa(lp51
I0
aI1
aI2
aI3
aI4
aI5
aI6
aI7
aI8
aI9
aI10
aI11
aI12
aI13
aI14
aI15
aI16
aa(lp52
I31
aI32
aI33
aI34
aI35
aI36
aI38
aI39
aI40
aI41
aI43
aI44
aI47
aI49
aI50
aI51
aI53
aI54
aI55
aI57
aI59
aI60
aI61
aI62
aI63
aI64
aI65
aI69
aI70
aI73
aI79
aI80
aI82
aI85
aa(lp53
I37
aI42
aI45
aI46
aI48
aI52
aI56
aI58
aI66
aI68
aI71
aI72
aI74
aI75
aI76
aI77
aI81
aI83
aI84
aa(lp54
I67
aI78
aI86
aI87
aI88
aI89
aaa(lp55
I20
aI9
aI47
aI71
aI86
aaa(lp56
S'soapbox'
p57
a(lp58
(lp59
I74
aI75
aI76
aI77
aI78
aI79
aI80
aI81
aI82
aa(lp60
I40
aI41
aI42
aI43
aI44
aI45
aI46
aI47
aI48
aI49
aI50
aI51
aI52
aa(lp61
I53
aI54
aI55
aI56
aI57
aI58
aI59
aI60
aI61
aI62
aI63
aI64
aI65
aI66
aI67
aI68
aI69
aI70
aI71
aI72
aI73
aa(lp62
I83
aI84
aI85
aI86
aI87
aI88
aI89
aI90
aI91
aI92
aI93
aI94
aI95
aI96
aI97
aI98
aa(lp63
I0
aI1
aI2
aI3
aI4
aI5
aI6
aI7
aI8
aI9
aI10
aI11
aI12
aI13
aI14
aI15
aI16
aI17
aI18
aI19
aI20
aI21
aI22
aI23
aI24
aI25
aI26
aI27
aI28
aI29
aI30
aI31
aI32
aI33
aI34
aI35
aI36
aI37
aI38
aI39
aaa(lp64
I78
aI46
aI68
aI88
aI22
aaa(lp65
S'stroller'
p66
a(lp67
(lp68
I0
aI1
aI2
aI3
aI4
aI5
aI6
aI7
aI8
aI9
aI10
aI11
aI12
aI13
aI19
aI20
aI21
aI22
aI23
aI24
aI25
aI26
aa(lp69
I72
aI73
aI74
aI75
aI76
aI77
aI78
aI79
aI80
aI81
aI82
aI83
aI84
aa(lp70
I14
aI15
aI16
aI17
aI18
aI27
aI28
aI29
aI30
aI31
aI32
aI34
aI35
aI36
aI37
aI38
aI39
aI40
aI41
aI42
aI43
aI44
aa(lp71
I64
aI65
aI66
aI67
aI68
aI69
aI70
aI71
aa(lp72
I33
aI45
aI46
aI47
aI48
aI49
aI50
aI51
aI52
aI53
aI54
aI55
aI56
aI57
aI58
aI59
aI60
aI61
aI62
aI63
aI85
aI86
aI87
aI88
aI89
aI90
aaa(lp73
I8
aI80
aI40
aI68
aI56
aaa(lp74
S'dog'
p75
a(lp76
(lp77
I14
aI15
aI16
aI17
aI18
aI19
aI20
aI21
aI22
aI23
aI24
aa(lp78
I25
aI26
aI27
aI28
aI29
aI30
aI31
aI32
aI34
aI35
aI36
aI37
aI38
aI39
aI40
aI41
aI42
aa(lp79
I0
aI1
aI2
aI3
aI4
aI5
aI6
aI7
aI8
aI9
aI10
aI11
aI12
aI13
aa(lp80
I33
aI43
aI44
aI45
aI46
aa(lp81
I47
aI48
aI49
aI50
aI51
aI52
aI53
aI54
aI55
aI56
aI57
aI58
aI59
aaa(lp82
I19
aI30
aI9
aI44
aI58
aaa(lp83
S'lucia'
p84
a(lp85
(lp86
I23
aI24
aI25
aI26
aI27
aI28
aI29
aa(lp87
I0
aI1
aI2
aI3
aI4
aI5
aI6
aI7
aI8
aI9
aI10
aI11
aI12
aI13
aa(lp88
I14
aI15
aI16
aI17
aI18
aI19
aI20
aI21
aI22
aa(lp89
I30
aI31
aI32
aI33
aI34
aI35
aI36
aI37
aI38
aI39
aI40
aI41
aI42
aI43
aI44
aI45
aI46
aI47
aI48
aI49
aI50
aa(lp90
I51
aI52
aI53
aI54
aI55
aI56
aI57
aI58
aI59
aI60
aI61
aI62
aI63
aI64
aI65
aI66
aI67
aI68
aI69
aaa(lp91
I25
aI6
aI18
aI37
aI58
aaa(lp92
S'bear'
p93
a(lp94
(lp95
I0
aI1
aI7
aI8
aI9
aI10
aI11
aI12
aI13
aI14
aI15
aI17
aa(lp96
I57
aI58
aI59
aI60
aI61
aI62
aI63
aI64
aI65
aI66
aI67
aI68
aI69
aI70
aI71
aI72
aI73
aI74
aI75
aI76
aI77
aI78
aI79
aI80
aI81
aa(lp97
I16
aI18
aI19
aI20
aI21
aI23
aI24
aI25
aI26
aI27
aI28
aI29
aI30
aI31
aI32
aI33
aI43
aa(lp98
I22
aI34
aI35
aI36
aI37
aI38
aI39
aI40
aI41
aI42
aI44
aI45
aI46
aI47
aI48
aI49
aI50
aI51
aI52
aI53
aI54
aI55
aI56
aa(lp99
I2
aI3
aI4
aI5
aI6
aaa(lp100
I10
aI67
aI21
aI42
aI5
aaa(lp101
S'horsejump-high'
p102
a(lp103
(lp104
I29
aI30
aI31
aI32
aI34
aI35
aI36
aI37
aI38
aI41
aI43
aa(lp105
I1
aI15
aI22
aI23
aI24
aI25
aI26
aa(lp106
I9
aI12
aI13
aI14
aI16
aI17
aI18
aI19
aI20
aI21
aa(lp107
I0
aI2
aI3
aI4
aI5
aI6
aI7
aI8
aI10
aI11
aa(lp108
I27
aI28
aI33
aI39
aI40
aI42
aI44
aI45
aI46
aI47
aI48
aI49
aaa(lp109
I41
aI15
aI14
aI6
aI44
aaa(lp110
S'swing'
p111
a(lp112
(lp113
I0
aI1
aI2
aI3
aI4
aI5
aI6
aI7
aI8
aI9
aI10
aI11
aI12
aI13
aI24
aa(lp114
I37
aI39
aI40
aI41
aI42
aI43
aI58
aI59
aa(lp115
I14
aI15
aI16
aI17
aI18
aI19
aI20
aI21
aI22
aI23
aa(lp116
I25
aI26
aI27
aI28
aI29
aI30
aI31
aI32
aI33
aI34
aI35
aI36
aI38
aa(lp117
I44
aI45
aI46
aI47
aI48
aI49
aI50
aI51
aI52
aI53
aI54
aI55
aI56
aI57
aaa(lp118
I11
aI40
aI19
aI29
aI54
aaa(lp119
S'kite-walk'
p120
a(lp121
(lp122
I24
aI25
aI26
aI27
aI28
aI29
aI30
aI31
aI32
aI33
aI34
aI35
aI36
aI37
aI38
aI39
aI40
aI41
aI42
aI43
aa(lp123
I0
aI1
aI2
aI3
aI4
aI5
aI6
aI7
aI8
aI9
aI10
aI11
aI12
aI13
aI14
aI15
aI16
aI17
aI18
aI19
aI20
aI21
aI22
aI23
aa(lp124
I71
aI72
aI73
aI74
aI75
aI76
aI77
aI78
aI79
aa(lp125
I44
aI45
aI60
aI61
aI62
aI63
aI64
aI65
aI66
aI67
aI68
aI69
aI70
aa(lp126
I46
aI47
aI48
aI49
aI50
aI51
aI52
aI53
aI54
aI55
aI56
aI57
aI58
aI59
aaa(lp127
I32
aI14
aI76
aI63
aI53
aaa(lp128
S'boat'
p129
a(lp130
(lp131
I52
aI57
aI62
aI64
aI65
aI66
aI67
aI68
aI69
aI70
aI71
aI72
aI73
aI74
aa(lp132
I28
aI29
aI30
aI31
aI32
aI33
aI41
aI42
aI43
aI44
aI45
aI46
aI47
aa(lp133
I10
aI13
aI16
aI19
aI20
aa(lp134
I0
aI1
aI2
aI3
aI4
aI5
aI6
aI7
aI8
aI9
aI11
aI12
aI14
aI15
aI17
aI18
aI21
aI22
aI23
aI24
aI25
aI26
aI27
aa(lp135
I34
aI35
aI36
aI37
aI38
aI39
aI40
aI48
aI49
aI50
aI51
aI53
aI54
aI55
aI56
aI58
aI59
aI60
aI61
aI63
aaa(lp136
I69
aI33
aI13
aI8
aI36
aaa(lp137
S'rollerblade'
p138
a(lp139
(lp140
I1
aI2
aI3
aI4
aI5
aa(lp141
I7
aI8
aI18
aI32
aI33
aI34
aa(lp142
I9
aI10
aI19
aI20
aI21
aI22
aI23
aI24
aI25
aI26
aI27
aI28
aa(lp143
I0
aI11
aI12
aI13
aI14
aI15
aI16
aa(lp144
I6
aI17
aI29
aI30
aI31
aaa(lp145
I4
aI34
aI26
aI13
aI29
aaa(lp146
S'horsejump-low'
p147
a(lp148
(lp149
I0
aI1
aI2
aI3
aI4
aI5
aI6
aa(lp150
I7
aI8
aI9
aI10
aI11
aI12
aI13
aI14
aI15
aI16
aI27
aI28
aa(lp151
I51
aI52
aI53
aI54
aI55
aI56
aI57
aI58
aI59
aa(lp152
I17
aI18
aI19
aI20
aI21
aI22
aI23
aI24
aI25
aI26
aa(lp153
I29
aI30
aI31
aI32
aI33
aI34
aI35
aI36
aI37
aI38
aI39
aI40
aI41
aI42
aI43
aI44
aI45
aI46
aI47
aI48
aI49
aI50
aaa(lp154
I3
aI14
aI55
aI24
aI45
aaa(lp155
S'camel'
p156
a(lp157
(lp158
I17
aI18
aI19
aI20
aI21
aI22
aI23
aI24
aI25
aI26
aI27
aI28
aI29
aI30
aI31
aI32
aI33
aI34
aI35
aI36
aI37
aI39
aI40
aa(lp159
I38
aI41
aI42
aI43
aI44
aI45
aI46
aI47
aI48
aI49
aI50
aI51
aI52
aI55
aI56
aI57
aa(lp160
I0
aI1
aI2
aI3
aI4
aI5
aI6
aI7
aI8
aI9
aI10
aI11
aI12
aI13
aI14
aI15
aI16
aa(lp161
I53
aI54
aI58
aI59
aI60
aI61
aI62
aI63
aI64
aI65
aI66
aI67
aI68
aI69
aa(lp162
I70
aI71
aI72
aI73
aI74
aI75
aI76
aI77
aI78
aI79
aI80
aI81
aI82
aI83
aI84
aI85
aI86
aI87
aI88
aI89
aaa(lp163
I22
aI45
aI10
aI60
aI80
aaa(lp164
S'drift-chicane'
p165
a(lp166
(lp167
I2
aI9
aI10
aI11
aI12
aI18
aI19
aI20
aI21
aI22
aI23
aI24
aI25
aI26
aa(lp168
I6
aI7
aI29
aI30
aI31
aI32
aI33
aI34
aa(lp169
I47
aI48
aI49
aI50
aI51
aa(lp170
I0
aI1
aI3
aI4
aI5
aI8
aI13
aI14
aI15
aI16
aI17
aI27
aI28
aa(lp171
I35
aI36
aI37
aI38
aI39
aI40
aI41
aI42
aI43
aI44
aI45
aI46
aaa(lp172
I23
aI32
aI49
aI27
aI42
aaa(lp173
S'motocross-bumps'
p174
a(lp175
(lp176
I0
aI1
aI2
aI3
aI4
aI6
aI8
aI9
aI11
aI12
aI18
aI19
aa(lp177
I5
aI7
aI10
aI13
aI14
aI15
aI21
aa(lp178
I34
aI35
aI36
aI37
aI38
aI39
aI40
aI41
aI42
aI43
aI44
aI45
aI57
aI58
aI59
aa(lp179
I46
aI47
aI48
aI49
aI50
aI51
aI52
aI53
aI54
aI55
aI56
aa(lp180
I16
aI17
aI20
aI22
aI23
aI24
aI25
aI26
aI27
aI28
aI29
aI30
aI31
aI32
aI33
aaa(lp181
I9
aI10
aI38
aI51
aI31
aaa(lp182
S'parkour'
p183
a(lp184
(lp185
I47
aI48
aI49
aI50
aI51
aI52
aI53
aI54
aI55
aI56
aI57
aI58
aI59
aI60
aI61
aa(lp186
I0
aI1
aI2
aI3
aI4
aI6
aI7
aI8
aI9
aI10
aI11
aI12
aI13
aI14
aI15
aI16
aI17
aI18
aI19
aI20
aI21
aI22
aI23
aI24
aI25
aI26
aI27
aI28
aI29
aI30
aI31
aI32
aI33
aI34
aa(lp187
I5
aI35
aI36
aI37
aI38
aI39
aI40
aI43
aa(lp188
I41
aI42
aI44
aI45
aI46
aI62
aa(lp189
I63
aI64
aI65
aI66
aI67
aI68
aI69
aI70
aI71
aI72
aI73
aI74
aI75
aI76
aI77
aI78
aI79
aI80
aI81
aI82
aI83
aI84
aI85
aI86
aI87
aI88
aI89
aI90
aI91
aI92
aI93
aI94
aI95
aI96
aI97
aI98
aI99
aaa(lp190
I51
aI30
aI37
aI45
aI74
aaa(lp191
S'bus'
p192
a(lp193
(lp194
I0
aI1
aI2
aI3
aI4
aI5
aI6
aI7
aI8
aI9
aI10
aI11
aI12
aI13
aI14
aa(lp195
I15
aI16
aI17
aI18
aI19
aI20
aI21
aI22
aI23
aI24
aI25
aI26
aI27
aI28
aI29
aI30
aI31
aI32
aI33
aI34
aI35
aI36
aa(lp196
I37
aI38
aI39
aI40
aI41
aI42
aI43
aI44
aI45
aI46
aI47
aI48
aI49
aI50
aI51
aI52
aI53
aa(lp197
I54
aI55
aI56
aI57
aI58
aI59
aI75
aI76
aI77
aI78
aI79
aa(lp198
I60
aI61
aI62
aI63
aI64
aI65
aI66
aI67
aI68
aI69
aI70
aI71
aI72
aI73
aI74
aaa(lp199
I7
aI24
aI47
aI58
aI66
aaa(lp200
S'motorbike'
p201
a(lp202
(lp203
I0
aI1
aI2
aI3
aI4
aI5
aI6
aI7
aI8
aa(lp204
I17
aI18
aI21
aI22
aI38
aa(lp205
I9
aI10
aI11
aI12
aI13
aa(lp206
I14
aI15
aI16
aI19
aI20
aa(lp207
I23
aI24
aI25
aI26
aI27
aI28
aI29
aI30
aI31
aI32
aI33
aI34
aI35
aI36
aI37
aI39
aI40
aI41
aI42
aaa(lp208
I5
aI21
aI11
aI16
aI36
aaa(lp209
S'goat'
p210
a(lp211
(lp212
I6
aI8
aI10
aI13
aI17
aI19
aI23
aI34
aI40
aI41
aI42
aI46
aI48
aI49
aI50
aI52
aI54
aI55
aI56
aI57
aI58
aI59
aI65
aI67
aI68
aI69
aa(lp213
I1
aI18
aI21
aI73
aI75
aI76
aI78
aa(lp214
I0
aI2
aI3
aI20
aI71
aI72
aI74
aI77
aI79
aI80
aI81
aI82
aI83
aI88
aI89
aa(lp215
I7
aI9
aI12
aI14
aI15
aI16
aI24
aI27
aI29
aI37
aI39
aI43
aI64
aI66
aa(lp216
I4
aI5
aI11
aI22
aI25
aI26
aI28
aI30
aI31
aI32
aI33
aI35
aI36
aI38
aI44
aI45
aI47
aI51
aI53
aI60
aI61
aI62
aI63
aI70
aI84
aI85
aI86
aI87
aaa(lp217
I23
aI76
aI79
aI16
aI22
aaa(lp218
S'breakdance'
p219
a(lp220
(lp221
I10
aI11
aI12
aI13
aI14
aI15
aI16
aI17
aI18
aI19
aI20
aa(lp222
I0
aI1
aI2
aI3
aI4
aI5
aI6
aa(lp223
I40
aI41
aI42
aI43
aI44
aI45
aI46
aI47
aI48
aI49
aI50
aI51
aI52
aI53
aI54
aa(lp224
I7
aI8
aI9
aI21
aI22
aI23
aI24
aI25
aI26
aI27
aI28
aI72
aI73
aI74
aI75
aI76
aI77
aI78
aI79
aI80
aI81
aI82
aI83
aa(lp225
I29
aI30
aI31
aI32
aI33
aI34
aI35
aI36
aI37
aI38
aI39
aI55
aI56
aI57
aI58
aI59
aI60
aI61
aI62
aI63
aI64
aI65
aI66
aI67
aI68
aI69
aI70
aI71
aaa(lp226
I14
aI4
aI47
aI75
aI33
aaa(lp227
S'car-roundabout'
p228
a(lp229
(lp230
I47
aI48
aI49
aI50
aI51
aI52
aI53
aI54
aI55
aI56
aI57
aI58
aa(lp231
I35
aI36
aI37
aI38
aI39
aI40
aI41
aI42
aI43
aI44
aI45
aI46
aa(lp232
I0
aI1
aI2
aI3
aI4
aI5
aa(lp233
I59
aI60
aI61
aI62
aI63
aI64
aI65
aI66
aI67
aI68
aI69
aI70
aI71
aI72
aI73
aI74
aa(lp234
I6
aI7
aI8
aI9
aI10
aI11
aI12
aI13
aI14
aI15
aI16
aI17
aI18
aI19
aI20
aI21
aI22
aI23
aI24
aI25
aI26
aI27
aI28
aI29
aI30
aI31
aI32
aI33
aI34
aaa(lp235
I53
aI41
aI2
aI66
aI14
aaa(lp236
S'scooter-black'
p237
a(lp238
(lp239
I9
aI10
aI11
aI12
aI13
aI14
aI15
aI16
aI17
aa(lp240
I0
aI1
aI2
aI3
aI4
aI5
aI6
aI7
aI8
aa(lp241
I29
aI30
aI31
aI32
aI33
aI34
aI35
aI36
aI37
aI38
aI39
aI40
aI41
aI42
aa(lp242
I18
aI19
aI20
aI21
aI22
aa(lp243
I23
aI24
aI25
aI26
aI27
aI28
aaa(lp244
I13
aI3
aI35
aI20
aI25
aaa(lp245
S'soccerball'
p246
a(lp247
(lp248
I0
aI1
aI27
aI28
aI31
aI32
aI33
aI34
aI35
aI36
aI47
aa(lp249
I2
aI12
aI13
aI14
aI15
aI16
aI17
aI18
aI25
aI26
aI29
aI30
aI37
aI38
aI40
aa(lp250
I4
aI5
aI6
aI19
aI21
aI23
aI41
aa(lp251
I7
aI8
aI9
aI10
aI11
aI20
aI22
aI42
aI43
aI44
aa(lp252
I3
aI24
aI39
aI45
aI46
aaa(lp253
I31
aI29
aI4
aI7
aI46
aaa(lp254
S'scooter-gray'
p255
a(lp256
(lp257
I9
aI10
aI11
aI12
aI13
aI14
aI15
aI16
aI17
aI18
aI19
aI20
aI21
aI22
aI23
aa(lp258
I0
aI1
aI2
aI3
aI4
aI5
aI6
aI7
aI8
aI56
aI57
aI58
aI59
aI60
aI61
aI62
aI63
aI64
aI65
aI66
aa(lp259
I24
aI25
aI26
aI27
aI28
aI29
aI30
aI31
aI32
aI33
aI34
aI35
aI36
aI37
aI38
aI39
aa(lp260
I67
aI68
aI69
aI70
aI71
aI72
aI73
aI74
aa(lp261
I40
aI41
aI42
aI43
aI44
aI45
aI46
aI47
aI48
aI49
aI50
aI51
aI52
aI53
aI54
aI55
aaa(lp262
I20
aI62
aI32
aI71
aI47
aaa(lp263
S'drift-turn'
p264
a(lp265
(lp266
I0
aI1
aI2
aI3
aI4
aI5
aI6
aI7
aI8
aI9
aI10
aI11
aI12
aI13
aI14
aI15
aI16
aI17
aI18
aa(lp267
I58
aI59
aI60
aI61
aI62
aI63
aa(lp268
I19
aI20
aI21
aI22
aI23
aI24
aI25
aI26
aI28
aa(lp269
I27
aI29
aI30
aI31
aI32
aI33
aI34
aI35
aI36
aI37
aI38
aI39
aI40
aI41
aI42
aI43
aI44
aI45
aI46
aI47
aI48
aI49
aI51
aa(lp270
I50
aI52
aI53
aI54
aI55
aI56
aI57
aaa(lp271
I5
aI60
aI23
aI37
aI54
aaa(lp272
S'breakdance-flare'
p273
a(lp274
(lp275
I6
aI7
aI8
aI17
aI20
aI42
aI43
aI44
aI46
aa(lp276
I10
aI27
aI28
aI31
aI32
aI33
aI34
aI35
aI36
aI48
aI50
aI66
aI67
aI68
aI69
aI70
aa(lp277
I4
aI5
aI40
aI41
aI53
aI54
aI55
aa(lp278
I0
aI1
aI2
aI3
aI9
aI11
aI12
aI13
aI14
aI15
aI16
aI19
aI37
aI38
aI39
aI45
aI47
aa(lp279
I18
aI21
aI22
aI23
aI24
aI25
aI26
aI29
aI30
aI49
aI51
aI52
aI56
aI57
aI58
aI59
aI60
aI61
aI62
aI63
aI64
aI65
aaa(lp280
I6
aI34
aI41
aI1
aI60
aaa(lp281
S'dog-agility'
p282
a(lp283
(lp284
I3
aI4
aI5
aI6
aI7
aa(lp285
I0
aI1
aI2
aa(lp286
I12
aI13
aI15
aI16
aI18
aa(lp287
I14
aI17
aI20
aI21
aI22
aI23
aI24
aa(lp288
I8
aI9
aI10
aI11
aI19
aaa(lp289
I4
aI2
aI16
aI23
aI8
aaa(lp290
S'libby'
p291
a(lp292
(lp293
I0
aI1
aI2
aI3
aI4
aa(lp294
I12
aI14
aI15
aI16
aI18
aI20
aI21
aI28
aI29
aI30
aa(lp295
I10
aI11
aI13
aI17
aI19
aI22
aI23
aa(lp296
I5
aI6
aI7
aI8
aI9
aI24
aI25
aI26
aI27
aa(lp297
I31
aI32
aI33
aI34
aI35
aI36
aI37
aI38
aI39
aI40
aI41
aI42
aI43
aI44
aI45
aI46
aI47
aI48
aaa(lp298
I2
aI20
aI13
aI6
aI42
aaa(lp299
S'surf'
p300
a(lp301
(lp302
I0
aI1
aI2
aI3
aI4
aI5
aI6
aI7
aI8
aI9
aI10
aI11
aI12
aI13
aa(lp303
I16
aI17
aI18
aI19
aI20
aI21
aI22
aI23
aI25
aI27
aI29
aI39
aI40
aI43
aI52
aI54
aa(lp304
I41
aI42
aI44
aI45
aI46
aI47
aI53
aa(lp305
I14
aI15
aI24
aI26
aI30
aI31
aI33
aI36
aI37
aI38
aI50
aI51
aa(lp306
I28
aI32
aI34
aI35
aI48
aI49
aaa(lp307
I6
aI16
aI42
aI24
aI35
aaa(lp308
S'hockey'
p309
a(lp310
(lp311
I0
aI1
aI2
aI3
aI4
aI5
aI6
aI7
aI8
aI9
aI10
aI11
aI12
aI13
aI14
aI15
aI16
aI17
aI18
aI19
aI20
aI21
aI22
aI23
aI24
aI25
aI26
aI27
aa(lp312
I43
aI45
aI46
aI47
aI48
aI49
aI55
aI70
aI71
aI72
aI73
aI74
aa(lp313
I29
aI30
aI31
aI33
aI34
aI35
aI38
aI54
aI56
aa(lp314
I28
aI57
aI58
aI59
aI60
aI61
aI62
aI63
aI64
aI65
aI66
aI67
aI68
aI69
aa(lp315
I32
aI36
aI37
aI39
aI40
aI41
aI42
aI44
aI50
aI51
aI52
aI53
aaa(lp316
I23
aI55
aI35
aI66
aI37
aaa(lp317
S'drift-straight'
p318
a(lp319
(lp320
I20
aI21
aI22
aI23
aI24
aI25
aI26
aI27
aa(lp321
I0
aI1
aI2
aI3
aI4
aI5
aI6
aI7
aI8
aI9
aI10
aI11
aa(lp322
I39
aI40
aI41
aI42
aI43
aI44
aI45
aI46
aI47
aI48
aI49
aa(lp323
I12
aI13
aI14
aI15
aI16
aI17
aI18
aI19
aa(lp324
I28
aI29
aI30
aI31
aI32
aI33
aI34
aI35
aI36
aI37
aI38
aaa(lp325
I22
aI5
aI42
aI16
aI34
aaa(lp326
S'train'
p327
a(lp328
(lp329
I0
aI1
aI2
aI3
aI4
aI5
aI6
aI7
aI8
aI9
aI10
aI11
aI12
aI13
aI14
aI18
aa(lp330
I29
aI31
aI34
aI35
aI36
aI37
aI38
aI39
aI40
aI41
aI42
aI43
aI44
aI45
aI46
aI47
aI48
aI49
aI50
aI51
aI52
aa(lp331
I60
aI61
aI62
aI71
aI72
aI73
aI74
aI75
aI76
aI77
aI78
aI79
aa(lp332
I19
aI20
aI21
aI22
aI23
aI24
aI25
aI26
aI27
aI28
aI30
aI32
aI33
aI53
aa(lp333
I15
aI16
aI17
aI54
aI55
aI56
aI57
aI58
aI59
aI63
aI64
aI65
aI66
aI67
aI68
aI69
aI70
aaa(lp334
I8
aI42
aI73
aI26
aI67
aaa(lp335
S'rhino'
p336
a(lp337
(lp338
I0
aI1
aI2
aI3
aI4
aI5
aI6
aI7
aI8
aI9
aI10
aI11
aI12
aI13
aI14
aI15
aI16
aI17
aI18
aI19
aI20
aI22
aa(lp339
I21
aI23
aI24
aI25
aI26
aI27
aI28
aI29
aI30
aI31
aI32
aI33
aI34
aI35
aI36
aI38
aI46
aI55
aI59
aI61
aa(lp340
I37
aI56
aI62
aI64
aI65
aI66
aI68
aI70
aI71
aI72
aI73
aa(lp341
I39
aI40
aI41
aI42
aI43
aI44
aI45
aI47
aI48
aI49
aI50
aI51
aI52
aI53
aI54
aI57
aI58
aI63
aI67
aI69
aa(lp342
I60
aI74
aI75
aI76
aI77
aI78
aI79
aI80
aI81
aI82
aI83
aI84
aI85
aI86
aI87
aI88
aI89
aaa(lp343
I9
aI28
aI64
aI48
aI78
aaa(lp344
S'paragliding-launch'
p345
a(lp346
(lp347
I33
aI35
aI37
aI39
aI40
aI43
aI44
aI48
aI49
aI51
aI52
aI53
aI54
aI55
aI56
aI57
aI58
aI59
aI60
aI61
aI62
aI63
aI68
aI69
aI70
aI71
aI72
aI73
aa(lp348
I0
aI1
aI2
aI4
aI5
aI6
aI7
aI8
aI9
aI10
aI11
aI12
aI13
aI14
aI15
aI16
aI18
aI19
aI23
aI24
aa(lp349
I3
aI17
aI20
aI21
aI22
aI25
aI26
aI27
aI28
aI29
aI30
aI31
aI41
aI42
aI65
aI66
aa(lp350
I32
aI34
aI36
aI38
aI45
aI46
aI47
aI50
aa(lp351
I64
aI67
aI74
aI75
aI76
aI77
aI78
aI79
aaa(lp352
I57
aI15
aI31
aI36
aI75
aaa(lp353
S'motocross-jump'
p354
a(lp355
(lp356
I5
aI6
aI7
aI8
aI9
aa(lp357
I10
aI11
aI12
aI13
aI14
aI15
aI16
aI17
aI18
aI19
aa(lp358
I31
aI32
aI33
aI34
aI35
aI36
aI37
aI38
aI39
aa(lp359
I0
aI1
aI2
aI3
aI4
aa(lp360
I20
aI21
aI22
aI23
aI24
aI25
aI26
aI27
aI28
aI29
aI30
aaa(lp361
I8
aI15
aI35
aI2
aI26
aaa(lp362
S'tennis'
p363
a(lp364
(lp365
I0
aI1
aI2
aI3
aI4
aI5
aI6
aI7
aI8
aI9
aI10
aI11
aI12
aI13
aa(lp366
I28
aI29
aI30
aI31
aI32
aI33
aI34
aI35
aI36
aI37
aI38
aI39
aI40
aI41
aI42
aI43
aI44
aI45
aI47
aa(lp367
I14
aI15
aI16
aI17
aI18
aI19
aI20
aI21
aI57
aI64
aI65
aI66
aI67
aI68
aI69
aa(lp368
I22
aI26
aI27
aI49
aI50
aI51
aI52
aI53
aI54
aI55
aI56
aI58
aI59
aI60
aI61
aI62
aI63
aa(lp369
I23
aI24
aI25
aI46
aI48
aaa(lp370
I9
aI32
aI67
aI58
aI25
aaa(lp371
S'paragliding'
p372
a(lp373
(lp374
I24
aI25
aI32
aI34
aI47
aI49
aI52
aI54
aI55
aI61
aI62
aI63
aI65
aI66
aI67
aa(lp375
I13
aI14
aI19
aI21
aI22
aa(lp376
I0
aI1
aI2
aI3
aI4
aI5
aI6
aI7
aI8
aI9
aI10
aI11
aI12
aI15
aa(lp377
I26
aI27
aI28
aI29
aI30
aI31
aI33
aI35
aI36
aI37
aI38
aI39
aI40
aI41
aI42
aI43
aI44
aI45
aI46
aI48
aI50
aI51
aI53
aI56
aI57
aI58
aI59
aI60
aI64
aI68
aI69
aa(lp378
I16
aI17
aI18
aI20
aI23
aaa(lp379
I63
aI21
aI7
aI44
aI20
aaa(lp380
S'bmx-trees'
p381
a(lp382
(lp383
I7
aI8
aI9
aI10
aI11
aI12
aI13
aI14
aI15
aI16
aa(lp384
I0
aI1
aI2
aI3
aI4
aI5
aI6
aI63
aI64
aI65
aI66
aI67
aI68
aI69
aI70
aI71
aI72
aI73
aI74
aI75
aI76
aI77
aI78
aI79
aa(lp385
I17
aI18
aI19
aI20
aI21
aI22
aI23
aI24
aI25
aI26
aI27
aI28
aI29
aI30
aI31
aI32
aI33
aI34
aI35
aI36
aa(lp386
I45
aI46
aI47
aI48
aI49
aI50
aI51
aI52
aI53
aI54
aI55
aI56
aI57
aI58
aI59
aI60
aI61
aI62
aa(lp387
I37
aI38
aI39
aI40
aI41
aI42
aI43
aI44
aaa(lp388
I11
aI77
aI26
aI56
aI40
aaa(lp389
S'kite-surf'
p390
a(lp391
(lp392
I2
aI5
aI6
aI7
aI8
aI9
aI10
aI11
aI12
aI13
aI14
aI15
aI16
aI18
aa(lp393
I0
aI1
aI3
aI4
aI25
aI26
aI27
aI28
aI29
aa(lp394
I30
aI33
aI34
aI35
aI36
aI37
aI38
aI39
aI47
aa(lp395
I17
aI19
aI20
aI21
aI22
aI23
aI24
aI31
aI32
aa(lp396
I40
aI41
aI42
aI43
aI44
aI45
aI46
aI48
aI49
aaa(lp397
I14
aI28
aI35
aI20
aI46
aaa(lp398
S'flamingo'
p399
a(lp400
(lp401
I18
aI19
aI20
aI21
aI22
aI23
aI24
aI25
aI26
aI27
aI28
aI29
aI30
aI31
aI32
aI33
aI34
aa(lp402
I0
aI1
aI2
aI3
aI4
aI5
aI6
aI7
aI8
aI9
aI10
aI11
aI12
aI13
aI14
aI15
aI16
aI17
aa(lp403
I50
aI53
aI54
aI55
aI56
aI57
aI58
aI59
aI60
aI61
aI62
aa(lp404
I63
aI64
aI65
aI66
aI67
aI68
aI69
aI70
aI71
aI72
aI73
aI74
aI75
aI76
aI77
aI78
aI79
aa(lp405
I35
aI36
aI37
aI38
aI39
aI40
aI41
aI42
aI43
aI44
aI45
aI46
aI47
aI48
aI49
aI51
aI52
aaa(lp406
I31
aI9
aI57
aI71
aI43
aaa(lp407
S'bmx-bumps'
p408
a(lp409
(lp410
I76
aI77
aI78
aI79
aI80
aI81
aI82
aI83
aa(lp411
I63
aI64
aI65
aI66
aI67
aI68
aI69
aI70
aI71
aI72
aI73
aI74
aI75
aa(lp412
I24
aI25
aI26
aI27
aI28
aI29
aI30
aI43
aI44
aI45
aI46
aI47
aI48
aI49
aI50
aI51
aI52
aI53
aI54
aI55
aI56
aI57
aI84
aI85
aI86
aI87
aI88
aI89
aa(lp413
I58
aI59
aI60
aI61
aI62
aa(lp414
I0
aI1
aI2
aI3
aI4
aI5
aI6
aI7
aI8
aI9
aI10
aI11
aI12
aI13
aI14
aI15
aI16
aI17
aI18
aI19
aI20
aI21
aI22
aI23
aI31
aI32
aI33
aI34
aI35
aI36
aI37
aI38
aI39
aI40
aI41
aI42
aaa(lp415
I79
aI72
aI44
aI60
aI39
aaa(lp416
S'car-turn'
p417
a(lp418
(lp419
I43
aI44
aI45
aI46
aI47
aI48
aI49
aI50
aI51
aI52
aI53
aa(lp420
I0
aI1
aI2
aI3
aI4
aI5
aI6
aI7
aI8
aI9
aI10
aI11
aI12
aI13
aI14
aI15
aI16
aI17
aI18
aI19
aI20
aI21
aI22
aI23
aI24
aI25
aI26
aI27
aI28
aI29
aa(lp421
I30
aI31
aI32
aI33
aI34
aI35
aI36
aI37
aI38
aI39
aI40
aI41
aI42
aa(lp422
I54
aI55
aI56
aI57
aI58
aI59
aI60
aI61
aI62
aI63
aI64
aI65
aI66
aI67
aI68
aI69
aI70
aa(lp423
I71
aI72
aI73
aI74
aI75
aI76
aI77
aI78
aI79
aaa(lp424
I48
aI10
aI37
aI61
aI74
aaa(lp425
S'car-shadow'
p426
a(lp427
(lp428
I7
aI8
aI9
aI10
aI11
aI12
aI13
aI14
aI15
aa(lp429
I16
aI17
aI18
aI19
aI20
aI21
aI22
aI23
aI24
aa(lp430
I0
aI1
aI2
aI3
aI4
aI5
aI6
aa(lp431
I35
aI36
aI37
aI38
aI39
aa(lp432
I25
aI26
aI27
aI28
aI29
aI30
aI31
aI32
aI33
aI34
aaa(lp433
I11
aI21
aI3
aI37
aI28
aaa(lp434
S'blackswan'
p435
a(lp436
(lp437
I2
aI5
aI6
aI7
aI8
aI12
aI14
aI16
aa(lp438
I0
aI1
aI3
aI4
aI9
aI10
aI11
aI13
aa(lp439
I40
aI41
aI42
aI43
aI44
aI45
aI46
aI47
aI48
aI49
aa(lp440
I15
aI17
aI18
aI19
aI20
aI21
aI22
aI23
aI24
aI25
aI26
aI27
aI28
aI29
aI31
aa(lp441
I30
aI32
aI33
aI34
aI35
aI36
aI37
aI38
aI39
aaa(lp442
I6
aI3
aI47
aI21
aI38
aaa(lp443
S'elephant'
p444
a(lp445
(lp446
I27
aI31
aI34
aI36
aI39
aI41
aI42
aI43
aI44
aI52
aI53
aI79
aa(lp447
I14
aI15
aI17
aI19
aI20
aI23
aI24
aI25
aI26
aI28
aI29
aI30
aI32
aI33
aI35
aI37
aI38
aI40
aa(lp448
I0
aI1
aI2
aI3
aI4
aI5
aI6
aI7
aI8
aI9
aI10
aI11
aI12
aI13
aI16
aI18
aI21
aI22
aa(lp449
I55
aI56
aI57
aI58
aI59
aI60
aI61
aI62
aI63
aI64
aI65
aI66
aI67
aI68
aI69
aI70
aI72
aa(lp450
I45
aI46
aI47
aI48
aI49
aI50
aI51
aI54
aI71
aI73
aI74
aI75
aI76
aI77
aI78
aaa(lp451
I43
aI30
aI13
aI62
aI76
aaa.