(lp1
(lp2
S'hike'
p3
a(lp4
(lp5
I0
aI1
aI2
aI3
aI4
aI5
aI6
aI7
aI8
aI9
aI10
aI11
aI12
aI13
aI14
aI15
aI16
aI17
aI18
aI19
aI20
aa(lp6
I21
aI22
aI23
aI24
aI25
aI26
aI27
aI28
aI29
aI30
aI31
aI32
aI33
aI34
aI35
aI36
aI37
aI38
aI39
aI40
aa(lp7
I41
aI42
aI43
aI44
aI45
aI46
aI47
aI48
aI49
aI50
aI51
aI52
aI53
aI54
aI55
aI56
aI57
aI58
aI59
aI60
aI61
aI62
aI63
aI64
aI65
aI66
aI67
aI68
aI69
aI70
aI71
aI72
aI73
aI74
aI75
aI76
aI77
aI78
aI79
aaa(lp8
I9
aI32
aI60
aaa(lp9
S'mallard-fly'
p10
a(lp11
(lp12
I31
aI32
aI33
aI34
aI35
aI36
aI37
aI38
aI39
aI40
aI41
aI42
aI43
aI44
aI45
aI46
aI47
aI48
aI49
aI50
aI51
aI52
aa(lp13
I0
aI1
aI2
aI3
aI4
aI5
aI6
aI7
aI8
aI9
aI10
aI11
aI12
aI13
aI14
aI15
aI16
aI17
aI18
aI19
aI20
aI21
aI22
aI23
aI24
aI25
aI26
aI27
aI28
aI29
aI30
aa(lp14
I53
aI54
aI55
aI56
aI57
aI58
aI59
aI60
aI61
aI62
aI63
aI64
aI65
aI66
aI67
aI68
aI69
aaa(lp15
I39
aI16
aI60
aaa(lp16
S'dance-jump'
p17
a(lp18
(lp19
I0
aI1
aI2
aI3
aI4
aI5
aI6
aI7
aI8
aI9
aI10
aa(lp20
I26
aI27
aI28
aI29
aI30
aI31
aI32
aI33
aI34
aI35
aI36
aI37
aI38
aI39
aI40
aI41
aI42
aI43
aI44
aI45
aI46
aI47
aI48
aI49
aI50
aI51
aI52
aI53
aI54
aI55
aI56
aI57
aI58
aI59
aa(lp21
I11
aI12
aI13
aI14
aI15
aI16
aI17
aI18
aI19
aI20
aI21
aI22
aI23
aI24
aI25
aaa(lp22
I5
aI53
aI21
aaa(lp23
S'mallard-water'
p24
a(lp25
(lp26
I17
aI18
aI19
aI20
aI21
aI22
aI23
aI24
aI25
aI26
aI27
aI28
aI29
aI30
aI31
aI32
aI33
aI34
aI35
aI36
aI37
aI38
aI39
aI40
aa(lp27
I0
aI1
aI2
aI3
aI4
aI5
aI6
aI7
aI8
aI9
aI10
aI11
aI12
aI13
aI14
aI15
aI16
aa(lp28
I41
aI42
aI43
aI44
aI45
aI46
aI47
aI48
aI49
aI50
aI51
aI52
aI53
aI54
aI55
aI56
aI57
aI58
aI59
aI60
aI61
aI62
aI63
aI64
aI65
aI66
aI67
aI68
aI69
aI70
aI71
aI72
aI73
aI74
aI75
aI76
aI77
aI78
aI79
aaa(lp29
I26
aI8
aI61
aaa(lp30
S'cows'
p31
a(lp32
(lp33
I0
aI1
aI2
aI3
aI4
aI5
aI6
aI7
aI8
aI9
aI10
aI11
aI12
aI13
aI14
aI15
aI16
aI17
aI18
aI19
aI20
aI21
aI23
aI24
aI28
aI29
aI30
aI41
aI46
aI47
aI48
aI49
aI50
aI51
aI52
aI53
aI58
aI59
aI60
aI63
aI65
aI66
aI67
aI68
aI69
aa(lp34
I84
aI85
aI86
aI87
aI88
aI89
aI90
aI91
aI92
aI93
aI94
aI95
aI96
aI97
aI98
aI99
aI100
aI101
aI102
aI103
aa(lp35
I22
aI25
aI26
aI27
aI31
aI32
aI33
aI34
aI35
aI36
aI37
aI38
aI39
aI40
aI42
aI43
aI44
aI45
aI54
aI55
aI56
aI57
aI61
aI62
aI64
aI70
aI71
aI72
aI73
aI74
aI75
aI76
aI77
aI78
aI79
aI80
aI81
aI82
aI83
aaa(lp36
I30
aI92
aI54
aaa(lp37
S'dance-twirl'
p38
a(lp39
(lp40
I0
aI1
aI2
aI3
aI4
aI5
aI6
aI7
aI8
aI9
aI10
aI11
aI12
aI13
aI14
aI15
aI16
aI22
aa(lp41
I33
aI34
aI35
aI36
aI37
aI38
aI39
aI40
aI41
aI42
aI43
aI44
aI45
aI46
aI47
aI48
aI49
aI50
aI51
aI52
aI53
aI54
aI55
aI56
aI57
aI58
aI59
aI60
aI61
aI62
aI63
aI64
aI65
aI66
aI67
aI68
aI69
aI70
aI71
aI72
aI73
aI74
aI75
aI76
aI77
aI78
aI79
aI80
aI81
aI82
aI83
aI84
aI85
aa(lp42
I17
aI18
aI19
aI20
aI21
aI23
aI24
aI25
aI26
aI27
aI28
aI29
aI30
aI31
aI32
aI86
aI87
aI88
aI89
aaa(lp43
I9
aI64
aI27
aaa(lp44
S'soapbox'
p45
a(lp46
(lp47
I0
aI1
aI2
aI3
aI4
aI5
aI6
aI7
aI8
aI9
aI10
aI11
aI12
aI13
aI14
aI15
aI16
aI17
aI18
aI19
aI20
aI21
aI22
aI23
aI24
aI25
aI26
aI27
aI28
aI29
aI30
aI31
aI32
aI33
aI34
aI35
aI36
aI37
aI38
aI39
aI40
aI41
aI42
aI43
aI44
aI45
aa(lp48
I79
aI80
aI81
aI82
aI83
aI84
aI85
aI86
aI87
aI88
aI89
aI90
aI91
aI92
aI93
aI94
aI95
aI96
aI97
aI98
aa(lp49
I46
aI47
aI48
aI49
aI50
aI51
aI52
aI53
aI54
aI55
aI56
aI57
aI58
aI59
aI60
aI61
aI62
aI63
aI64
aI65
aI66
aI67
aI68
aI69
aI70
aI71
aI72
aI73
aI74
aI75
aI76
aI77
aI78
aaa(lp50
I21
aI87
aI58
aaa(lp51
S'stroller'
p52
a(lp53
(lp54
I30
aI31
aI32
aI33
aI34
aI35
aI36
aI37
aI38
aI39
aI40
aI41
aI42
aI43
aI44
aI45
aI46
aI47
aI48
aI49
aI50
aI51
aI52
aI53
aI54
aI55
aI56
aI57
aI88
aI90
aa(lp55
I0
aI1
aI2
aI3
aI4
aI5
aI6
aI7
aI8
aI9
aI10
aI11
aI12
aI13
aI14
aI15
aI16
aI17
aI18
aI19
aI20
aI21
aI22
aI23
aI24
aI25
aI26
aI27
aI28
aI29
aa(lp56
I58
aI59
aI60
aI61
aI62
aI63
aI64
aI65
aI66
aI67
aI68
aI69
aI70
aI71
aI72
aI73
aI74
aI75
aI76
aI77
aI78
aI79
aI80
aI81
aI82
aI83
aI84
aI85
aI86
aI87
aI89
aaa(lp57
I45
aI19
aI84
aaa(lp58
S'dog'
p59
a(lp60
(lp61
I0
aI1
aI2
aI3
aI4
aI5
aI6
aI7
aI8
aI9
aI10
aI11
aI12
aI13
aI14
aI15
aI16
aI17
aa(lp62
I46
aI47
aI48
aI49
aI50
aI51
aI52
aI53
aI54
aI55
aI56
aI57
aI58
aI59
aa(lp63
I18
aI19
aI20
aI21
aI22
aI23
aI24
aI25
aI26
aI27
aI28
aI29
aI30
aI31
aI32
aI33
aI34
aI35
aI36
aI37
aI38
aI39
aI40
aI41
aI42
aI43
aI44
aI45
aaa(lp64
I12
aI58
aI31
aaa(lp65
S'lucia'
p66
a(lp67
(lp68
I0
aI1
aI2
aI3
aI4
aI5
aI6
aI7
aI8
aI9
aI10
aI11
aI12
aI13
aI14
aI15
aI16
aI17
aI18
aI19
aI20
aI21
aa(lp69
I51
aI52
aI53
aI54
aI55
aI56
aI57
aI58
aI59
aI60
aI61
aI62
aI63
aI64
aI65
aI66
aI67
aI68
aI69
aa(lp70
I22
aI23
aI24
aI25
aI26
aI27
aI28
aI29
aI30
aI31
aI32
aI33
aI34
aI35
aI36
aI37
aI38
aI39
aI40
aI41
aI42
aI43
aI44
aI45
aI46
aI47
aI48
aI49
aI50
aaa(lp71
I10
aI58
aI36
aaa(lp72
S'bear'
p73
a(lp74
(lp75
I56
aI57
aI58
aI59
aI60
aI61
aI62
aI63
aI64
aI65
aI66
aI67
aI68
aI69
aI70
aI71
aI72
aI73
aI74
aI75
aI76
aI77
aI78
aI79
aI80
aI81
aa(lp76
I19
aI22
aI24
aI25
aI26
aI28
aI31
aI32
aI33
aI34
aI35
aI36
aI37
aI38
aI39
aI40
aI41
aI42
aI43
aI44
aI45
aI46
aI47
aI48
aI49
aI50
aI51
aI52
aI53
aI54
aI55
aa(lp77
I0
aI1
aI2
aI3
aI4
aI5
aI6
aI7
aI8
aI9
aI10
aI11
aI12
aI13
aI14
aI15
aI16
aI17
aI18
aI20
aI21
aI23
aI27
aI29
aI30
aaa(lp78
I67
aI42
aI14
aaa(lp79
S'horsejump-high'
p80
a(lp81
(lp82
I9
aI12
aI13
aI14
aI15
aI16
aI17
aI18
aI19
aI20
aI21
aI22
aI23
aI24
aI26
aa(lp83
I0
aI1
aI2
aI3
aI4
aI5
aI6
aI7
aI8
aI10
aI11
aa(lp84
I25
aI27
aI28
aI29
aI30
aI31
aI32
aI33
aI34
aI35
aI36
aI37
aI38
aI39
aI40
aI41
aI42
aI43
aI44
aI45
aI46
aI47
aI48
aI49
aaa(lp85
I17
aI6
aI40
aaa(lp86
S'swing'
p87
a(lp88
(lp89
I0
aI1
aI2
aI3
aI4
aI5
aI6
aI7
aI8
aI9
aI10
aI11
aI12
aI13
aa(lp90
I14
aI15
aI16
aI17
aI18
aI19
aI20
aI21
aI22
aI23
aI24
aI25
aI26
aI27
aI28
aI29
aI30
aI32
aI34
aI38
aa(lp91
I31
aI33
aI35
aI36
aI37
aI39
aI40
aI41
aI42
aI43
aI44
aI45
aI46
aI47
aI48
aI49
aI50
aI51
aI52
aI53
aI54
aI55
aI56
aI57
aI58
aI59
aaa(lp92
I11
aI22
aI57
aaa(lp93
S'kite-walk'
p94
a(lp95
(lp96
I0
aI1
aI14
aI15
aI16
aI17
aI18
aI19
aI20
aI21
aI22
aI23
aI24
aa(lp97
I2
aI3
aI4
aI5
aI6
aI7
aI8
aI9
aI10
aI11
aI12
aI13
aa(lp98
I25
aI26
aI27
aI28
aI29
aI30
aI31
aI32
aI33
aI34
aI35
aI36
aI37
aI38
aI39
aI40
aI41
aI42
aI43
aI44
aI45
aI46
aI47
aI48
aI49
aI50
aI51
aI52
aI53
aI54
aI55
aI56
aI57
aI58
aI59
aI60
aI61
aI62
aI63
aI64
aI65
aI66
aI67
aI68
aI69
aI70
aI71
aI72
aI73
aI74
aI75
aI76
aI77
aI78
aI79
aaa(lp99
I17
aI5
aI63
aaa(lp100
S'boat'
p101
a(lp102
(lp103
I0
aI1
aI2
aI3
aI4
aI5
aI6
aI7
aI8
aI9
aI10
aI11
aI12
aI13
aI14
aI15
aI16
aI17
aI18
aI19
aI20
aI21
aI22
aI23
aI24
aI25
aI26
aI27
aI28
aI29
aI30
aI31
aI32
aI41
aa(lp104
I33
aI34
aI35
aI36
aI37
aI38
aI39
aI40
aI42
aI43
aI44
aI46
aI48
aI49
aI50
aI51
aI53
aI54
aI55
aI56
aI58
aI59
aI60
aI61
aI63
aa(lp105
I45
aI47
aI52
aI57
aI62
aI64
aI65
aI66
aI67
aI68
aI69
aI70
aI71
aI72
aI73
aI74
aaa(lp106
I25
aI36
aI68
aaa(lp107
S'rollerblade'
p108
a(lp109
(lp110
I0
aI1
aI2
aI3
aI4
aI5
aI11
aI12
aI13
aI14
aI15
aI16
aa(lp111
I6
aI7
aI8
aI18
aI29
aI30
aI31
aI32
aI33
aI34
aa(lp112
I9
aI10
aI17
aI19
aI20
aI21
aI22
aI23
aI24
aI25
aI26
aI27
aI28
aaa(lp113
I11
aI33
aI24
aaa(lp114
S'horsejump-low'
p115
a(lp116
(lp117
I16
aI17
aI18
aI19
aI20
aI21
aI22
aI23
aI24
aI25
aI26
aI27
aI28
aa(lp118
I0
aI1
aI2
aI3
aI4
aI5
aI6
aI7
aI8
aI9
aI10
aI11
aI12
aI13
aI14
aI15
aa(lp119
I29
aI30
aI31
aI32
aI33
aI34
aI35
aI36
aI37
aI38
aI39
aI40
aI41
aI42
aI43
aI44
aI45
aI46
aI47
aI48
aI49
aI50
aI51
aI52
aI53
aI54
aI55
aI56
aI57
aI58
aI59
aaa(lp120
I24
aI7
aI48
aaa(lp121
S'camel'
p122
a(lp123
(lp124
I17
aI18
aI19
aI20
aI21
aI22
aI23
aI24
aI25
aI26
aI27
aI28
aI29
aI30
aI31
aI32
aI33
aI34
aI35
aI36
aI37
aI38
aI39
aI40
aI41
aI42
aI43
aI44
aI45
aI46
aI47
aI48
aI50
aa(lp125
I0
aI1
aI2
aI3
aI4
aI5
aI6
aI7
aI8
aI9
aI10
aI11
aI12
aI13
aI14
aI15
aI16
aa(lp126
I49
aI51
aI52
aI53
aI54
aI55
aI56
aI57
aI58
aI59
aI60
aI61
aI62
aI63
aI64
aI65
aI66
aI67
aI68
aI69
aI70
aI71
aI72
aI73
aI74
aI75
aI76
aI77
aI78
aI79
aI80
aI81
aI82
aI83
aI84
aI85
aI86
aI87
aI88
aI89
aaa(lp127
I35
aI10
aI71
aaa(lp128
S'drift-chicane'
p129
a(lp130
(lp131
I1
aI5
aI6
aI7
aI8
aI28
aI29
aI30
aI31
aI32
aI33
aI34
aa(lp132
I0
aI2
aI3
aI4
aI9
aI10
aI11
aI12
aI13
aI14
aI15
aI16
aI17
aI18
aI19
aI20
aI21
aI22
aI23
aI24
aI25
aI26
aI27
aa(lp133
I35
aI36
aI37
aI38
aI39
aI40
aI41
aI42
aI43
aI44
aI45
aI46
aI47
aI48
aI49
aI50
aI51
aaa(lp134
I29
aI12
aI45
aaa(lp135
S'motocross-bumps'
p136
a(lp137
(lp138
I34
aI35
aI36
aI37
aI38
aI39
aI40
aI41
aI42
aI43
aI44
aI45
aI46
aI47
aI48
aI49
aI50
aI51
aI52
aI53
aI54
aI55
aI56
aI57
aI58
aI59
aa(lp139
I0
aI1
aI2
aI3
aI6
aI7
aI8
aI9
aI11
aI13
aI16
aI17
aI18
aI19
aI20
aI22
aI23
aI29
aI30
aI31
aI32
aI33
aa(lp140
I4
aI5
aI10
aI12
aI14
aI15
aI21
aI24
aI25
aI26
aI27
aI28
aaa(lp141
I55
aI7
aI5
aaa(lp142
S'parkour'
p143
a(lp144
(lp145
I62
aI63
aI64
aI65
aI66
aI67
aI68
aI69
aI70
aI71
aI72
aI73
aI74
aI75
aI76
aI77
aI78
aI79
aI80
aI81
aI82
aI83
aI84
aI85
aI86
aI87
aI88
aI89
aI90
aI91
aI92
aI93
aI94
aI95
aI96
aI97
aI98
aI99
aa(lp146
I39
aI40
aI41
aI42
aI43
aI44
aI45
aI46
aI47
aI48
aI49
aI50
aI51
aI52
aI53
aI54
aI55
aI56
aI57
aI58
aI59
aI60
aI61
aa(lp147
I0
aI1
aI2
aI3
aI4
aI5
aI6
aI7
aI8
aI9
aI10
aI11
aI12
aI13
aI14
aI15
aI16
aI17
aI18
aI19
aI20
aI21
aI22
aI23
aI24
aI25
aI26
aI27
aI28
aI29
aI30
aI31
aI32
aI33
aI34
aI35
aI36
aI37
aI38
aaa(lp148
I74
aI51
aI30
aaa(lp149
S'bus'
p150
a(lp151
(lp152
I0
aI1
aI2
aI3
aI4
aI5
aI6
aI7
aI8
aI9
aI10
aI11
aI12
aI13
aI14
aI15
aI16
aI17
aI18
aI19
aI20
aI21
aI22
aI23
aI24
aI25
aI26
aI27
aI28
aI29
aI30
aI31
aa(lp153
I55
aI56
aI57
aI58
aI59
aI60
aI61
aI62
aI63
aI64
aI65
aI66
aI67
aI68
aI69
aI70
aI71
aI72
aI73
aI74
aI75
aI76
aI77
aI78
aI79
aa(lp154
I32
aI33
aI34
aI35
aI36
aI37
aI38
aI39
aI40
aI41
aI42
aI43
aI44
aI45
aI46
aI47
aI48
aI49
aI50
aI51
aI52
aI53
aI54
aaa(lp155
I13
aI60
aI42
aaa(lp156
S'motorbike'
p157
a(lp158
(lp159
I7
aI8
aI9
aI10
aI11
aI12
aI13
aa(lp160
I0
aI1
aI2
aI3
aI4
aI5
aI6
aa(lp161
I14
aI15
aI16
aI17
aI18
aI19
aI20
aI21
aI22
aI23
aI24
aI25
aI26
aI27
aI28
aI29
aI30
aI31
aI32
aI33
aI34
aI35
aI36
aI37
aI38
aI39
aI40
aI41
aI42
aaa(lp162
I10
aI3
aI37
aaa(lp163
S'goat'
p164
a(lp165
(lp166
I0
aI1
aI2
aI3
aI18
aI21
aI34
aI40
aI73
aI74
aI75
aI76
aI77
aI78
aa(lp167
I6
aI8
aI10
aI13
aI17
aI19
aI23
aI26
aI28
aI31
aI35
aI41
aI42
aI44
aI45
aI46
aI47
aI48
aI49
aI50
aI51
aI52
aI54
aI55
aI56
aI57
aI58
aI59
aI60
aI61
aI62
aI65
aI67
aI68
aI69
aa(lp168
I4
aI5
aI7
aI9
aI11
aI12
aI14
aI15
aI16
aI20
aI22
aI24
aI25
aI27
aI29
aI30
aI32
aI33
aI36
aI37
aI38
aI39
aI43
aI53
aI63
aI64
aI66
aI70
aI71
aI72
aI79
aI80
aI81
aI82
aI83
aI84
aI85
aI86
aI87
aI88
aI89
aaa(lp169
I21
aI23
aI5
aaa(lp170
S'breakdance'
p171
a(lp172
(lp173
I0
aI1
aI2
aI3
aI4
aI5
aI6
aI7
aI8
aI26
aI27
aI28
aI29
aI30
aI31
aI32
aI33
aI34
aI35
aI36
aI37
aI38
aI55
aI56
aI57
aI58
aI59
aI60
aI61
aI62
aI63
aI64
aI65
aI66
aI67
aI68
aI69
aI70
aI71
aI73
aI74
aI75
aI76
aI77
aI78
aI79
aa(lp174
I9
aI10
aI11
aI12
aI13
aI14
aI15
aI16
aI17
aI18
aI19
aI20
aI24
aI25
aa(lp175
I21
aI22
aI23
aI39
aI40
aI41
aI42
aI43
aI44
aI45
aI46
aI47
aI48
aI49
aI50
aI51
aI52
aI53
aI54
aI72
aI80
aI81
aI82
aI83
aaa(lp176
I32
aI11
aI47
aaa(lp177
S'car-roundabout'
p178
a(lp179
(lp180
I54
aI55
aI56
aI57
aI58
aI59
aI60
aI61
aI62
aI63
aI64
aI65
aI66
aI67
aI68
aI69
aI70
aI71
aI72
aI73
aI74
aa(lp181
I5
aI6
aI7
aI8
aI9
aI10
aI11
aI12
aI13
aI14
aI15
aI16
aI17
aI18
aI19
aI20
aI21
aI22
aI23
aI24
aI25
aI26
aI27
aI28
aI29
aI30
aI31
aI32
aI33
aI34
aI36
aI38
aa(lp182
I0
aI1
aI2
aI3
aI4
aI35
aI37
aI39
aI40
aI41
aI42
aI43
aI44
aI45
aI46
aI47
aI48
aI49
aI50
aI51
aI52
aI53
aaa(lp183
I64
aI9
aI42
aaa(lp184
S'scooter-black'
p185
a(lp186
(lp187
I0
aI1
aI2
aI3
aI4
aI5
aI6
aI7
aI8
aI9
aI10
aI11
aI12
aI13
aI14
aI15
aI16
aI17
aI18
aa(lp188
I27
aI28
aI29
aI30
aI31
aI32
aI33
aI34
aI35
aI36
aI37
aI38
aI39
aI40
aI41
aI42
aa(lp189
I19
aI20
aI21
aI22
aI23
aI24
aI25
aI26
aaa(lp190
I10
aI34
aI23
aaa(lp191
S'soccerball'
p192
a(lp193
(lp194
I2
aI3
aI6
aI12
aI13
aI14
aI15
aI16
aI17
aI18
aI19
aI23
aI24
aI25
aI26
aI29
aI30
aI37
aI38
aI39
aI40
aI45
aI46
aa(lp195
I0
aI1
aI27
aI28
aI31
aI32
aI33
aI34
aI35
aI36
aI47
aa(lp196
I4
aI5
aI7
aI8
aI9
aI10
aI11
aI20
aI21
aI22
aI41
aI42
aI43
aI44
aaa(lp197
I29
aI31
aI43
aaa(lp198
S'scooter-gray'
p199
a(lp200
(lp201
I0
aI1
aI2
aI3
aI4
aI5
aI6
aI7
aI8
aI9
aI10
aI11
aI12
aI13
aI14
aI15
aI16
aI17
aI18
aI19
aI20
aI21
aI60
aI61
aI62
aI63
aI64
aI65
aI66
aI67
aI68
aI69
aI70
aI71
aI72
aI73
aI74
aa(lp202
I45
aI46
aI47
aI48
aI49
aI50
aI51
aI52
aI53
aI54
aI55
aI56
aI57
aI58
aI59
aa(lp203
I22
aI23
aI24
aI25
aI26
aI27
aI28
aI29
aI30
aI31
aI32
aI33
aI34
aI35
aI36
aI37
aI38
aI39
aI40
aI41
aI42
aI43
aI44
aaa(lp204
I4
aI53
aI36
aaa(lp205
S'drift-turn'
p206
a(lp207
(lp208
I0
aI1
aI2
aI3
aI4
aI5
aI6
aI7
aI8
aI9
aI10
aI11
aI12
aI13
aI14
aI15
aI16
aI17
aI18
aI63
aa(lp209
I19
aI20
aI21
aI22
aI23
aI24
aI25
aI26
aI28
aI59
aI60
aI61
aI62
aa(lp210
I27
aI29
aI30
aI31
aI32
aI33
aI34
aI35
aI36
aI37
aI38
aI39
aI40
aI41
aI42
aI43
aI44
aI45
aI46
aI47
aI48
aI49
aI50
aI51
aI52
aI53
aI54
aI55
aI56
aI57
aI58
aaa(lp211
I5
aI21
aI51
aaa(lp212
S'breakdance-flare'
p213
a(lp214
(lp215
I0
aI1
aI2
aI3
aI9
aI11
aI12
aI13
aI14
aI15
aI16
aI17
aI18
aI19
aI20
aI21
aI22
aI23
aI24
aI25
aI26
aI30
aI37
aI38
aI39
aI44
aI45
aI46
aI47
aI48
aI49
aI51
aI52
aI56
aI59
aI60
aI61
aI62
aI63
aa(lp216
I10
aI27
aI28
aI29
aI31
aI32
aI33
aI34
aI35
aI36
aI50
aI58
aI64
aI65
aI66
aI67
aI68
aI69
aI70
aa(lp217
I4
aI5
aI6
aI7
aI8
aI40
aI41
aI42
aI43
aI53
aI54
aI55
aI57
aaa(lp218
I19
aI27
aI7
aaa(lp219
S'dog-agility'
p220
a(lp221
(lp222
I0
aI1
aI2
aI3
aI4
aI5
aI6
aI7
aa(lp223
I12
aI13
aI14
aI15
aI16
aI17
aI18
aI20
aI22
aI23
aI24
aa(lp224
I8
aI9
aI10
aI11
aI19
aI21
aaa(lp225
I3
aI16
aI8
aaa(lp226
S'libby'
p227
a(lp228
(lp229
I0
aI1
aI2
aI3
aI4
aI5
aI7
aI25
aa(lp230
I6
aI8
aI9
aI10
aI11
aI12
aI13
aI15
aI16
aI17
aI18
aI19
aI20
aI21
aI22
aI23
aI24
aI26
aI27
aI28
aI29
aa(lp231
I14
aI30
aI31
aI32
aI33
aI34
aI35
aI36
aI37
aI38
aI39
aI40
aI41
aI42
aI43
aI44
aI45
aI46
aI47
aI48
aaa(lp232
I4
aI22
aI42
aaa(lp233
S'surf'
p234
a(lp235
(lp236
I0
aI1
aI2
aI3
aI4
aI5
aI6
aI7
aI8
aI9
aI10
aI11
aI13
aa(lp237
I12
aI14
aI15
aI16
aI17
aI18
aI19
aI20
aI21
aI22
aI23
aI24
aI25
aI26
aI27
aI28
aI29
aI30
aI31
aI32
aI33
aI34
aI35
aI36
aI37
aI38
aI39
aI40
aI48
aI49
aI50
aI51
aI52
aI54
aa(lp238
I41
aI42
aI43
aI44
aI45
aI46
aI47
aI53
aaa(lp239
I6
aI24
aI44
aaa(lp240
S'hockey'
p241
a(lp242
(lp243
I0
aI1
aI2
aI3
aI4
aI5
aI6
aI7
aI8
aI9
aI10
aI11
aI12
aI13
aI14
aI15
aI16
aI17
aI18
aI19
aI20
aI21
aI22
aI23
aI24
aI25
aI26
aI27
aI67
aI69
aa(lp244
I28
aI29
aI30
aI31
aI32
aI33
aI34
aI35
aI36
aI37
aI38
aI39
aI40
aI41
aI42
aI44
aI50
aI51
aI52
aI53
aI54
aI56
aI57
aI58
aI59
aI60
aI61
aI62
aI63
aI64
aI65
aI66
aa(lp245
I43
aI45
aI46
aI47
aI48
aI49
aI55
aI68
aI70
aI71
aI72
aI73
aI74
aaa(lp246
I8
aI56
aI55
aaa(lp247
S'drift-straight'
p248
a(lp249
(lp250
I20
aI21
aI22
aI23
aI24
aI25
aI26
aI27
aI28
aI29
aI30
aI31
aI32
aI33
aI34
aI35
aI36
aI37
aI38
aa(lp251
I0
aI1
aI2
aI3
aI4
aI5
aI6
aI7
aI8
aI9
aI10
aI11
aI12
aI13
aI14
aI15
aI16
aI17
aI18
aI19
aa(lp252
I39
aI40
aI41
aI42
aI43
aI44
aI45
aI46
aI47
aI48
aI49
aaa(lp253
I28
aI9
aI42
aaa(lp254
S'train'
p255
a(lp256
(lp257
I15
aI19
aI20
aI21
aI22
aI23
aI24
aI25
aI26
aI27
aI28
aI29
aI30
aI31
aI32
aI33
aI34
aI35
aI36
aI37
aI38
aI39
aI40
aI41
aI42
aI43
aI44
aI45
aI46
aI47
aI48
aI49
aI50
aI51
aI52
aI53
aI54
aa(lp258
I16
aI17
aI55
aI56
aI57
aI58
aI59
aI60
aI61
aI62
aI63
aI64
aI65
aI66
aI67
aI68
aI69
aI70
aI71
aI72
aI73
aI74
aI75
aI76
aI77
aI78
aI79
aa(lp259
I0
aI1
aI2
aI3
aI4
aI5
aI6
aI7
aI8
aI9
aI10
aI11
aI12
aI13
aI14
aI18
aaa(lp260
I29
aI63
aI8
aaa(lp261
S'rhino'
p262
a(lp263
(lp264
I0
aI1
aI2
aI3
aI4
aI5
aI6
aI7
aI8
aI9
aI10
aI11
aI12
aI13
aI14
aI15
aI16
aI17
aI18
aI19
aI20
aI22
aa(lp265
I37
aI38
aI39
aI40
aI41
aI42
aI43
aI44
aI45
aI47
aI48
aI49
aI50
aI51
aI52
aI53
aI54
aI56
aI57
aI58
aI62
aI63
aI64
aI65
aI66
aI67
aI68
aI69
aI70
aI71
aI72
aI73
aa(lp266
I21
aI23
aI24
aI25
aI26
aI27
aI28
aI29
aI30
aI31
aI32
aI33
aI34
aI35
aI36
aI46
aI55
aI59
aI60
aI61
aI74
aI75
aI76
aI77
aI78
aI79
aI80
aI81
aI82
aI83
aI84
aI85
aI86
aI87
aI88
aI89
aaa(lp267
I9
aI49
aI35
aaa(lp268
S'paragliding-launch'
p269
a(lp270
(lp271
I33
aI35
aI37
aI39
aI40
aI43
aI44
aI48
aI49
aI51
aI52
aI53
aI54
aI55
aI56
aI57
aI58
aI59
aI60
aI61
aI62
aI63
aI68
aI69
aI70
aI71
aI72
aI73
aa(lp272
I26
aI32
aI34
aI36
aI38
aI41
aI42
aI45
aI46
aI47
aI50
aI64
aI65
aI67
aI74
aI75
aI76
aI77
aI78
aI79
aa(lp273
I0
aI1
aI2
aI3
aI4
aI5
aI6
aI7
aI8
aI9
aI10
aI11
aI12
aI13
aI14
aI15
aI16
aI17
aI18
aI19
aI20
aI21
aI22
aI23
aI24
aI25
aI27
aI28
aI29
aI30
aI31
aI66
aaa(lp274
I57
aI46
aI19
aaa(lp275
S'motocross-jump'
p276
a(lp277
(lp278
I0
aI1
aI2
aI3
aI4
aI5
aI6
aI7
aI8
aI9
aa(lp279
I10
aI11
aI12
aI13
aI14
aI15
aI16
aI17
aI18
aI19
aI20
aI21
aa(lp280
I22
aI23
aI24
aI25
aI26
aI27
aI28
aI29
aI30
aI31
aI32
aI33
aI34
aI35
aI36
aI37
aI38
aI39
aaa(lp281
I4
aI15
aI30
aaa(lp282
S'tennis'
p283
a(lp284
(lp285
I0
aI1
aI2
aI3
aI4
aI5
aI6
aI7
aI8
aI9
aI10
aI11
aI12
aI13
aI14
aI15
aa(lp286
I22
aI23
aI24
aI25
aI26
aI27
aI28
aI29
aI30
aI31
aI32
aI33
aI34
aI35
aI36
aI37
aI38
aI39
aI40
aI41
aI42
aI43
aI44
aI45
aI46
aI47
aI48
aI49
aI50
aI51
aI52
aI53
aI54
aI58
aI60
aI63
aa(lp287
I16
aI17
aI18
aI19
aI20
aI21
aI55
aI56
aI57
aI59
aI61
aI62
aI64
aI65
aI66
aI67
aI68
aI69
aaa(lp288
I9
aI34
aI20
aaa(lp289
S'paragliding'
p290
a(lp291
(lp292
I0
aI1
aI2
aI3
aI4
aI5
aI6
aI7
aI8
aI9
aI10
aI11
aI12
aI15
aa(lp293
I13
aI14
aI16
aI17
aI18
aI19
aI20
aI21
aI22
aI23
aa(lp294
I24
aI25
aI26
aI27
aI28
aI29
aI30
aI31
aI32
aI33
aI34
aI35
aI36
aI37
aI38
aI39
aI40
aI41
aI42
aI43
aI44
aI45
aI46
aI47
aI48
aI49
aI50
aI51
aI52
aI53
aI54
aI55
aI56
aI57
aI58
aI59
aI60
aI61
aI62
aI63
aI64
aI65
aI66
aI67
aI68
aI69
aaa(lp295
I7
aI19
aI38
aaa(lp296
S'bmx-trees'
p297
a(lp298
(lp299
I16
aI17
aI18
aI19
aI20
aI21
aI22
aI23
aI24
aI25
aI26
aI27
aI28
aI29
aI30
aI31
aI32
aI33
aI34
aI35
aI36
aI37
aI38
aI39
aI40
aI41
aa(lp300
I9
aI10
aI11
aI12
aI13
aI14
aI15
aI42
aI43
aI44
aI45
aI46
aI47
aI48
aI49
aI50
aI51
aI52
aI53
aI54
aI55
aI56
aI57
aI58
aI59
aI60
aI61
aI62
aa(lp301
I0
aI1
aI2
aI3
aI4
aI5
aI6
aI7
aI8
aI63
aI64
aI65
aI66
aI67
aI68
aI69
aI70
aI71
aI72
aI73
aI74
aI75
aI76
aI77
aI78
aI79
aaa(lp302
I34
aI47
aI77
aaa(lp303
S'kite-surf'
p304
a(lp305
(lp306
I36
aI37
aI38
aI39
aI40
aI41
aI42
aI43
aI44
aI45
aI46
aI47
aI48
aI49
aa(lp307
I0
aI3
aI4
aI17
aI20
aI21
aI22
aI23
aI24
aI25
aI26
aI27
aI28
aI29
aI30
aI31
aI32
aI33
aI34
aI35
aa(lp308
I1
aI2
aI5
aI6
aI7
aI8
aI9
aI10
aI11
aI12
aI13
aI14
aI15
aI16
aI18
aI19
aaa(lp309
I39
aI31
aI14
aaa(lp310
S'flamingo'
p311
a(lp312
(lp313
I0
aI1
aI2
aI3
aI4
aI5
aI6
aI7
aI8
aI9
aI10
aI11
aI12
aI13
aI14
aI15
aI16
aI17
aI18
aI19
aa(lp314
I56
aI57
aI58
aI59
aI60
aI61
aI62
aI63
aI64
aI65
aI66
aI67
aI68
aI69
aI70
aI71
aI72
aI73
aI74
aI75
aI76
aI77
aI78
aI79
aa(lp315
I20
aI21
aI22
aI23
aI24
aI25
aI26
aI27
aI28
aI29
aI30
aI31
aI32
aI33
aI34
aI35
aI36
aI37
aI38
aI39
aI40
aI41
aI42
aI43
aI44
aI45
aI46
aI47
aI48
aI49
aI50
aI51
aI52
aI53
aI54
aI55
aaa(lp316
I9
aI67
aI37
aaa(lp317
S'bmx-bumps'
p318
a(lp319
(lp320
I58
aI59
aI60
aI77
aI78
aI79
aI80
aI81
aI82
aI83
aI84
aI85
aI86
aI87
aa(lp321
I0
aI1
aI2
aI3
aI4
aI5
aI6
aI7
aI8
aI9
aI10
aI11
aI12
aI13
aI14
aI15
aI16
aI17
aI18
aI19
aI20
aI21
aI22
aI23
aI24
aI25
aI26
aI27
aI28
aI29
aI30
aI31
aI32
aI33
aI34
aI35
aI36
aI37
aI38
aI39
aI40
aI41
aI42
aI43
aI44
aI45
aI46
aI47
aI48
aI49
aI50
aI51
aI52
aI53
aI54
aI55
aI56
aI57
aI88
aI89
aa(lp322
I61
aI62
aI63
aI64
aI65
aI66
aI67
aI68
aI69
aI70
aI71
aI72
aI73
aI74
aI75
aI76
aaa(lp323
I81
aI35
aI72
aaa(lp324
S'car-turn'
p325
a(lp326
(lp327
I57
aI58
aI59
aI60
aI61
aI62
aI63
aI64
aI65
aI66
aI67
aI68
aI69
aI70
aI71
aI72
aI73
aI74
aI75
aI76
aI77
aI78
aI79
aa(lp328
I0
aI1
aI2
aI3
aI4
aI5
aI6
aI7
aI8
aI9
aI10
aI11
aI12
aI13
aI14
aI15
aI16
aI17
aI18
aI19
aI20
aI21
aI22
aI23
aI24
aI25
aI26
aI27
aI28
aI29
aI30
aI31
aI32
aI33
aI34
aI35
aI36
aI37
aI38
aI39
aI40
aI41
aa(lp329
I42
aI43
aI44
aI45
aI46
aI47
aI48
aI49
aI50
aI51
aI52
aI53
aI54
aI55
aI56
aaa(lp330
I69
aI25
aI49
aaa(lp331
S'car-shadow'
p332
a(lp333
(lp334
I0
aI1
aI2
aI3
aI4
aI5
aI6
aI7
aI8
aI9
aI10
aI11
aI12
aI13
aI15
aa(lp335
I14
aI16
aI17
aI18
aI19
aI20
aI21
aI22
aI23
aI24
aI25
aa(lp336
I26
aI27
aI28
aI29
aI30
aI31
aI32
aI33
aI34
aI35
aI36
aI37
aI38
aI39
aaa(lp337
I7
aI21
aI32
aaa(lp338
S'blackswan'
p339
a(lp340
(lp341
I0
aI1
aI2
aI3
aI4
aI5
aI6
aI7
aI8
aI9
aI10
aI11
aI12
aI13
aI14
aI16
aa(lp342
I15
aI17
aI18
aI19
aI20
aI21
aI22
aI23
aI24
aI25
aI26
aI27
aI28
aI29
aI30
aI31
aI33
aI36
aa(lp343
I32
aI34
aI35
aI37
aI38
aI39
aI40
aI41
aI42
aI43
aI44
aI45
aI46
aI47
aI48
aI49
aaa(lp344
I7
aI26
aI44
aaa(lp345
S'elephant'
p346
a(lp347
(lp348
I0
aI1
aI2
aI3
aI4
aI5
aI6
aI7
aI8
aI9
aI10
aI11
aI12
aI13
aI14
aI15
aI16
aI17
aI18
aI19
aI20
aI21
aI22
aI23
aI24
aI26
aa(lp349
I25
aI27
aI28
aI29
aI30
aI31
aI32
aI33
aI34
aI35
aI36
aI37
aI38
aI39
aI40
aI41
aI42
aI43
aI44
aI45
aI46
aI47
aI48
aI49
aI50
aI51
aI52
aI53
aa(lp350
I54
aI55
aI56
aI57
aI58
aI59
aI60
aI61
aI62
aI63
aI64
aI65
aI66
aI67
aI68
aI69
aI70
aI71
aI72
aI73
aI74
aI75
aI76
aI77
aI78
aI79
aaa(lp351
I13
aI41
aI66
aaa.